target datalayout = "e-m:e-p270:32:32-p271:32:32-p272:64:64-i64:64-i128:128-f80:128-n8:16:32:64-S128"
target triple = "x86_64-pc-linux-gnu"

%struct.SDL_Pen = type { i32, ptr, %struct.SDL_PenInfo, [7 x float], float, float, i32, ptr }
%struct.SDL_PenInfo = type { i32, float, i32, i32, i32 }
%union.SDL_Event = type { %struct.SDL_MouseWheelEvent, [72 x i8] }
%struct.SDL_MouseWheelEvent = type { i32, i32, i64, i32, i32, float, float, i32, float, float, i32, i32 }
%struct.SDL_Window = type { i32, ptr, ptr, i32, i32, i32, i32, i32, i32, i32, i32, float, float, i32, i32, i64, i64, float, i8, i8, i32, i32, %struct.SDL_Rect, %struct.SDL_Rect, %struct.SDL_Rect, i8, i8, i8, %struct.SDL_DisplayMode, %struct.SDL_DisplayMode, %struct.SDL_HDROutputProperties, float, ptr, i8, i8, i8, i8, i8, i8, i8, i8, i8, i32, i32, i32, i32, %struct.SDL_Rect, i32, i8, %struct.SDL_Rect, i32, %struct.SDL_Rect, ptr, ptr, i32, float, i32, i32, ptr, ptr, ptr, ptr, ptr, ptr, ptr, ptr, ptr }
%struct.SDL_DisplayMode = type { i32, i32, i32, i32, float, float, i32, i32, ptr }
%struct.SDL_HDROutputProperties = type { float, float }
%struct.SDL_Rect = type { i32, i32, i32, i32 }
%struct.SDL_Mouse = type { ptr, ptr, ptr, ptr, ptr, ptr, ptr, ptr, ptr, ptr, ptr, ptr, ptr, ptr, i8, float, float, ptr, float, float, float, float, float, float, float, float, double, double, i8, i8, i8, i8, i8, i8, i8, i8, i64, i8, float, i8, float, i8, i32, i32, i8, i8, i8, i8, i8, i8, i8, i8, i8, ptr, i32, ptr, ptr, ptr, ptr, i8, ptr }
%struct.SDL_PenAxisEvent = type { i32, i32, i64, i32, i32, i32, float, float, i32, float }

@pen_device_rwlock = internal global ptr null, align 8
@pen_device_count = internal global i32 0, align 4
@pen_devices = internal global ptr null, align 8
@pen_touching = internal global i32 0, align 4
@.str.1 = private unnamed_addr constant [24 x i8] c"Invalid pen instance ID\00", align 1

; Function Attrs: nounwind uwtable
define internal ptr @FindPenByInstanceId(i32 noundef %0) #0 {
  %2 = alloca ptr, align 8
  %3 = alloca i32, align 4
  %4 = alloca i32, align 4
  %5 = alloca i32, align 4
  store i32 %0, ptr %3, align 4
  %6 = load i32, ptr %3, align 4
  %7 = icmp ne i32 %6, 0
  br i1 %7, label %8, label %35

8:                                                ; preds = %1
  call void @llvm.lifetime.start.p0(i64 4, ptr %4) #6
  store i32 0, ptr %4, align 4
  br label %9

9:                                                ; preds = %29, %8
  %10 = load i32, ptr %4, align 4
  %11 = load i32, ptr @pen_device_count, align 4
  %12 = icmp slt i32 %10, %11
  br i1 %12, label %14, label %13

13:                                               ; preds = %9
  store i32 2, ptr %5, align 4
  br label %32

14:                                               ; preds = %9
  %15 = load ptr, ptr @pen_devices, align 8
  %16 = load i32, ptr %4, align 4
  %17 = sext i32 %16 to i64
  %18 = getelementptr inbounds %struct.SDL_Pen, ptr %15, i64 %17
  %19 = getelementptr inbounds nuw %struct.SDL_Pen, ptr %18, i32 0, i32 0
  %20 = load i32, ptr %19, align 8
  %21 = load i32, ptr %3, align 4
  %22 = icmp eq i32 %20, %21
  br i1 %22, label %23, label %28

23:                                               ; preds = %14
  %24 = load ptr, ptr @pen_devices, align 8
  %25 = load i32, ptr %4, align 4
  %26 = sext i32 %25 to i64
  %27 = getelementptr inbounds %struct.SDL_Pen, ptr %24, i64 %26
  store ptr %27, ptr %2, align 8
  store i32 1, ptr %5, align 4
  br label %32

28:                                               ; preds = %14
  br label %29

29:                                               ; preds = %28
  %30 = load i32, ptr %4, align 4
  %31 = add nsw i32 %30, 1
  store i32 %31, ptr %4, align 4
  br label %9, !llvm.loop !7

32:                                               ; preds = %23, %13
  call void @llvm.lifetime.end.p0(i64 4, ptr %4) #6
  %33 = load i32, ptr %5, align 4
  switch i32 %33, label %39 [
    i32 2, label %34
    i32 1, label %37
  ]

34:                                               ; preds = %32
  br label %35

35:                                               ; preds = %34, %1
  %36 = call zeroext i1 (ptr, ...) @SDL_SetError_REAL(ptr noundef @.str.1)
  store ptr null, ptr %2, align 8
  br label %37

37:                                               ; preds = %35, %32
  %38 = load ptr, ptr %2, align 8
  ret ptr %38

39:                                               ; preds = %32
  unreachable
}

; Function Attrs: nounwind uwtable
define hidden void @SDL_SendPenAxis(i64 noundef %0, i32 noundef %1, ptr noundef %2, i32 noundef %3, float noundef %4) #0 {
  %6 = alloca i64, align 8
  %7 = alloca i32, align 4
  %8 = alloca ptr, align 8
  %9 = alloca i32, align 4
  %10 = alloca float, align 4
  %11 = alloca i8, align 1
  %12 = alloca i32, align 4
  %13 = alloca float, align 4
  %14 = alloca float, align 4
  %15 = alloca ptr, align 8
  %16 = alloca %union.SDL_Event, align 8
  %17 = alloca ptr, align 8
  %18 = alloca float, align 4
  %19 = alloca float, align 4
  store i64 %0, ptr %6, align 8
  store i32 %1, ptr %7, align 4
  store ptr %2, ptr %8, align 8
  store i32 %3, ptr %9, align 4
  store float %4, ptr %10, align 4
  br label %20

20:                                               ; preds = %5
  br label %21

21:                                               ; preds = %20
  call void @llvm.lifetime.start.p0(i64 1, ptr %11) #6
  store i8 0, ptr %11, align 1
  call void @llvm.lifetime.start.p0(i64 4, ptr %12) #6
  store i32 0, ptr %12, align 4
  call void @llvm.lifetime.start.p0(i64 4, ptr %13) #6
  store float 0.000000e+00, ptr %13, align 4
  call void @llvm.lifetime.start.p0(i64 4, ptr %14) #6
  store float 0.000000e+00, ptr %14, align 4
  %22 = load ptr, ptr @pen_device_rwlock, align 8
  call void @SDL_LockRWLockForReading_REAL(ptr noundef %22)
  call void @llvm.lifetime.start.p0(i64 8, ptr %15) #6
  %23 = load i32, ptr %7, align 4
  %24 = call ptr @FindPenByInstanceId(i32 noundef %23)
  store ptr %24, ptr %15, align 8
  %25 = load ptr, ptr %15, align 8
  %26 = icmp ne ptr %25, null
  br i1 %26, label %27, label %53

27:                                               ; preds = %21
  %28 = load ptr, ptr %15, align 8
  %29 = getelementptr inbounds nuw %struct.SDL_Pen, ptr %28, i32 0, i32 3
  %30 = load i32, ptr %9, align 4
  %31 = zext i32 %30 to i64
  %32 = getelementptr inbounds nuw [7 x float], ptr %29, i64 0, i64 %31
  %33 = load float, ptr %32, align 4
  %34 = load float, ptr %10, align 4
  %35 = fcmp une float %33, %34
  br i1 %35, label %36, label %52

36:                                               ; preds = %27
  %37 = load float, ptr %10, align 4
  %38 = load ptr, ptr %15, align 8
  %39 = getelementptr inbounds nuw %struct.SDL_Pen, ptr %38, i32 0, i32 3
  %40 = load i32, ptr %9, align 4
  %41 = zext i32 %40 to i64
  %42 = getelementptr inbounds nuw [7 x float], ptr %39, i64 0, i64 %41
  store float %37, ptr %42, align 4
  %43 = load ptr, ptr %15, align 8
  %44 = getelementptr inbounds nuw %struct.SDL_Pen, ptr %43, i32 0, i32 6
  %45 = load i32, ptr %44, align 8
  store i32 %45, ptr %12, align 4
  %46 = load ptr, ptr %15, align 8
  %47 = getelementptr inbounds nuw %struct.SDL_Pen, ptr %46, i32 0, i32 4
  %48 = load float, ptr %47, align 8
  store float %48, ptr %13, align 4
  %49 = load ptr, ptr %15, align 8
  %50 = getelementptr inbounds nuw %struct.SDL_Pen, ptr %49, i32 0, i32 5
  %51 = load float, ptr %50, align 4
  store float %51, ptr %14, align 4
  store i8 1, ptr %11, align 1
  br label %52

52:                                               ; preds = %36, %27
  br label %53

53:                                               ; preds = %52, %21
  %54 = load ptr, ptr @pen_device_rwlock, align 8
  call void @SDL_UnlockRWLock_REAL(ptr noundef %54)
  %55 = load i8, ptr %11, align 1, !range !9, !noundef !10
  %56 = trunc i8 %55 to i1
  br i1 %56, label %57, label %124

57:                                               ; preds = %53
  %58 = call zeroext i1 @SDL_EventEnabled_REAL(i32 noundef 4871)
  br i1 %58, label %59, label %124

59:                                               ; preds = %57
  call void @llvm.lifetime.start.p0(i64 128, ptr %16) #6
  call void @llvm.memset.p0.i64(ptr align 8 %16, i8 0, i64 128, i1 false)
  %60 = getelementptr inbounds nuw %struct.SDL_PenAxisEvent, ptr %16, i32 0, i32 0
  store i32 4871, ptr %60, align 8
  %61 = load i64, ptr %6, align 8
  %62 = getelementptr inbounds nuw %struct.SDL_PenAxisEvent, ptr %16, i32 0, i32 2
  store i64 %61, ptr %62, align 8
  %63 = load ptr, ptr %8, align 8
  %64 = icmp ne ptr %63, null
  br i1 %64, label %65, label %69

65:                                               ; preds = %59
  %66 = load ptr, ptr %8, align 8
  %67 = getelementptr inbounds nuw %struct.SDL_Window, ptr %66, i32 0, i32 0
  %68 = load i32, ptr %67, align 8
  br label %70

69:                                               ; preds = %59
  br label %70

70:                                               ; preds = %69, %65
  %71 = phi i32 [ %68, %65 ], [ 0, %69 ]
  %72 = getelementptr inbounds nuw %struct.SDL_PenAxisEvent, ptr %16, i32 0, i32 3
  store i32 %71, ptr %72, align 8
  %73 = load i32, ptr %7, align 4
  %74 = getelementptr inbounds nuw %struct.SDL_PenAxisEvent, ptr %16, i32 0, i32 4
  store i32 %73, ptr %74, align 4
  %75 = load i32, ptr %12, align 4
  %76 = getelementptr inbounds nuw %struct.SDL_PenAxisEvent, ptr %16, i32 0, i32 5
  store i32 %75, ptr %76, align 8
  %77 = load float, ptr %13, align 4
  %78 = getelementptr inbounds nuw %struct.SDL_PenAxisEvent, ptr %16, i32 0, i32 6
  store float %77, ptr %78, align 4
  %79 = load float, ptr %14, align 4
  %80 = getelementptr inbounds nuw %struct.SDL_PenAxisEvent, ptr %16, i32 0, i32 7
  store float %79, ptr %80, align 8
  %81 = load i32, ptr %9, align 4
  %82 = getelementptr inbounds nuw %struct.SDL_PenAxisEvent, ptr %16, i32 0, i32 8
  store i32 %81, ptr %82, align 4
  %83 = load float, ptr %10, align 4
  %84 = getelementptr inbounds nuw %struct.SDL_PenAxisEvent, ptr %16, i32 0, i32 9
  store float %83, ptr %84, align 8
  %85 = call zeroext i1 @SDL_PushEvent_REAL(ptr noundef %16)
  %86 = load ptr, ptr %8, align 8
  %87 = icmp ne ptr %86, null
  br i1 %87, label %88, label %123

88:                                               ; preds = %70
  %89 = load i32, ptr %9, align 4
  %90 = icmp eq i32 %89, 0
  br i1 %90, label %91, label %123

91:                                               ; preds = %88
  %92 = load i32, ptr @pen_touching, align 4
  %93 = load i32, ptr %7, align 4
  %94 = icmp eq i32 %92, %93
  br i1 %94, label %95, label %123

95:                                               ; preds = %91
  call void @llvm.lifetime.start.p0(i64 8, ptr %17) #6
  %96 = call ptr @SDL_GetMouse()
  store ptr %96, ptr %17, align 8
  %97 = load ptr, ptr %17, align 8
  %98 = icmp ne ptr %97, null
  br i1 %98, label %99, label %122

99:                                               ; preds = %95
  %100 = load ptr, ptr %17, align 8
  %101 = getelementptr inbounds nuw %struct.SDL_Mouse, ptr %100, i32 0, i32 47
  %102 = load i8, ptr %101, align 1, !range !9, !noundef !10
  %103 = trunc i8 %102 to i1
  br i1 %103, label %104, label %122

104:                                              ; preds = %99
  call void @llvm.lifetime.start.p0(i64 4, ptr %18) #6
  %105 = load float, ptr %13, align 4
  %106 = load ptr, ptr %8, align 8
  %107 = getelementptr inbounds nuw %struct.SDL_Window, ptr %106, i32 0, i32 5
  %108 = load i32, ptr %107, align 8
  %109 = sitofp i32 %108 to float
  %110 = fdiv float %105, %109
  store float %110, ptr %18, align 4
  call void @llvm.lifetime.start.p0(i64 4, ptr %19) #6
  %111 = load float, ptr %14, align 4
  %112 = load ptr, ptr %8, align 8
  %113 = getelementptr inbounds nuw %struct.SDL_Window, ptr %112, i32 0, i32 6
  %114 = load i32, ptr %113, align 4
  %115 = sitofp i32 %114 to float
  %116 = fdiv float %111, %115
  store float %116, ptr %19, align 4
  %117 = load i64, ptr %6, align 8
  %118 = load ptr, ptr %8, align 8
  %119 = load float, ptr %18, align 4
  %120 = load float, ptr %19, align 4
  %121 = load float, ptr %10, align 4
  call void @SDL_SendTouchMotion(i64 noundef %117, i64 noundef -2, i64 noundef 1, ptr noundef %118, float noundef %119, float noundef %120, float noundef %121)
  call void @llvm.lifetime.end.p0(i64 4, ptr %19) #6
  call void @llvm.lifetime.end.p0(i64 4, ptr %18) #6
  br label %122

122:                                              ; preds = %104, %99, %95
  call void @llvm.lifetime.end.p0(i64 8, ptr %17) #6
  br label %123

123:                                              ; preds = %122, %91, %88, %70
  call void @llvm.lifetime.end.p0(i64 128, ptr %16) #6
  br label %124

124:                                              ; preds = %123, %57, %53
  call void @llvm.lifetime.end.p0(i64 8, ptr %15) #6
  call void @llvm.lifetime.end.p0(i64 4, ptr %14) #6
  call void @llvm.lifetime.end.p0(i64 4, ptr %13) #6
  call void @llvm.lifetime.end.p0(i64 4, ptr %12) #6
  call void @llvm.lifetime.end.p0(i64 1, ptr %11) #6
  ret void
}