; Function Attrs: nounwind uwtable
define hidden void @SDL_SendPenAxis(i64 noundef %0, i32 noundef %1, ptr noundef %2, i32 noundef %3, float noundef %4) local_unnamed_addr #0 {
  %6 = alloca %union.SDL_Event, align 8
  %7 = load ptr, ptr @pen_device_rwlock, align 8
  tail call void @SDL_LockRWLockForReading_REAL(ptr noundef %7) #8
  %.not.i = icmp eq i32 %1, 0
  br i1 %.not.i, label %FindPenByInstanceId.exit.thread, label %.preheader.i

.preheader.i:                                     ; preds = %5
  %8 = load i32, ptr @pen_device_count, align 4
  %9 = icmp sgt i32 %8, 0
  br i1 %9, label %.lr.ph.i, label %FindPenByInstanceId.exit.thread

.lr.ph.i:                                         ; preds = %.preheader.i
  %10 = load ptr, ptr @pen_devices, align 8
  %wide.trip.count.i = zext nneg i32 %8 to i64
  br label %12

11:                                               ; preds = %12
  %indvars.iv.next.i = add nuw nsw i64 %indvars.iv.i, 1
  %exitcond.not.i = icmp eq i64 %indvars.iv.next.i, %wide.trip.count.i
  br i1 %exitcond.not.i, label %FindPenByInstanceId.exit.thread, label %12, !llvm.loop !7

12:                                               ; preds = %11, %.lr.ph.i
  %indvars.iv.i = phi i64 [ 0, %.lr.ph.i ], [ %indvars.iv.next.i, %11 ]
  %13 = getelementptr inbounds nuw %struct.SDL_Pen, ptr %10, i64 %indvars.iv.i
  %14 = load i32, ptr %13, align 8
  %15 = icmp eq i32 %14, %1
  br i1 %15, label %FindPenByInstanceId.exit, label %11

FindPenByInstanceId.exit.thread:                  ; preds = %11, %5, %.preheader.i
  %16 = tail call zeroext i1 (ptr, ...) @SDL_SetError_REAL(ptr noundef nonnull @.str.1) #8
  br label %.thread

FindPenByInstanceId.exit:                         ; preds = %12
  %17 = getelementptr inbounds nuw i8, ptr %13, i64 36
  %18 = zext i32 %3 to i64
  %19 = getelementptr inbounds nuw [7 x float], ptr %17, i64 0, i64 %18
  %20 = load float, ptr %19, align 4
  %21 = fcmp une float %20, %4
  br i1 %21, label %23, label %.thread

.thread:                                          ; preds = %FindPenByInstanceId.exit, %FindPenByInstanceId.exit.thread
  %22 = load ptr, ptr @pen_device_rwlock, align 8
  tail call void @SDL_UnlockRWLock_REAL(ptr noundef %22) #8
  br label %66

23:                                               ; preds = %FindPenByInstanceId.exit
  store float %4, ptr %19, align 4
  %24 = getelementptr inbounds nuw i8, ptr %13, i64 72
  %25 = load i32, ptr %24, align 8
  %26 = getelementptr inbounds nuw i8, ptr %13, i64 64
  %27 = load float, ptr %26, align 8
  %28 = getelementptr inbounds nuw i8, ptr %13, i64 68
  %29 = load float, ptr %28, align 4
  %30 = load ptr, ptr @pen_device_rwlock, align 8
  tail call void @SDL_UnlockRWLock_REAL(ptr noundef %30) #8
  %31 = tail call zeroext i1 @SDL_EventEnabled_REAL(i32 noundef 4871) #8
  br i1 %31, label %32, label %66

32:                                               ; preds = %23
  call void @llvm.lifetime.start.p0(i64 128, ptr nonnull %6) #8
  call void @llvm.memset.p0.i64(ptr noundef nonnull align 8 dereferenceable(128) %6, i8 0, i64 128, i1 false)
  store i32 4871, ptr %6, align 8
  %33 = getelementptr inbounds nuw i8, ptr %6, i64 8
  store i64 %0, ptr %33, align 8
  %34 = icmp ne ptr %2, null
  br i1 %34, label %35, label %37

35:                                               ; preds = %32
  %36 = load i32, ptr %2, align 8
  br label %37

37:                                               ; preds = %32, %35
  %38 = phi i32 [ %36, %35 ], [ 0, %32 ]
  %39 = getelementptr inbounds nuw i8, ptr %6, i64 16
  store i32 %38, ptr %39, align 8
  %40 = getelementptr inbounds nuw i8, ptr %6, i64 20
  store i32 %1, ptr %40, align 4
  %41 = getelementptr inbounds nuw i8, ptr %6, i64 24
  store i32 %25, ptr %41, align 8
  %42 = getelementptr inbounds nuw i8, ptr %6, i64 28
  store float %27, ptr %42, align 4
  %43 = getelementptr inbounds nuw i8, ptr %6, i64 32
  store float %29, ptr %43, align 8
  %44 = getelementptr inbounds nuw i8, ptr %6, i64 36
  store i32 %3, ptr %44, align 4
  %45 = getelementptr inbounds nuw i8, ptr %6, i64 40
  store float %4, ptr %45, align 8
  %46 = call zeroext i1 @SDL_PushEvent_REAL(ptr noundef nonnull %6) #8
  %47 = icmp eq i32 %3, 0
  %or.cond = and i1 %34, %47
  %48 = load i32, ptr @pen_touching, align 4
  %49 = icmp eq i32 %48, %1
  %or.cond44 = select i1 %or.cond, i1 %49, i1 false
  br i1 %or.cond44, label %50, label %65

50:                                               ; preds = %37
  %51 = call ptr @SDL_GetMouse() #8
  %.not42 = icmp eq ptr %51, null
  br i1 %.not42, label %65, label %52

52:                                               ; preds = %50
  %53 = getelementptr inbounds nuw i8, ptr %51, i64 231
  %54 = load i8, ptr %53, align 1, !range !9, !noundef !10
  %55 = trunc nuw i8 %54 to i1
  br i1 %55, label %56, label %65

56:                                               ; preds = %52
  %57 = getelementptr inbounds nuw i8, ptr %2, i64 32
  %58 = load i32, ptr %57, align 8
  %59 = sitofp i32 %58 to float
  %60 = fdiv float %27, %59
  %61 = getelementptr inbounds nuw i8, ptr %2, i64 36
  %62 = load i32, ptr %61, align 4
  %63 = sitofp i32 %62 to float
  %64 = fdiv float %29, %63
  call void @SDL_SendTouchMotion(i64 noundef %0, i64 noundef -2, i64 noundef 1, ptr noundef nonnull %2, float noundef %60, float noundef %64, float noundef %4) #8
  br label %65

65:                                               ; preds = %50, %52, %56, %37
  call void @llvm.lifetime.end.p0(i64 128, ptr nonnull %6) #8
  br label %66

66:                                               ; preds = %.thread, %65, %23
  ret void
}